target datalayout = "e-m:e-p270:32:32-p271:32:32-p272:64:64-i64:64-i128:128-f80:128-n8:16:32:64-S128"
target triple = "x86_64-pc-linux-gnu"

%union.pthread_mutex_t = type { %struct.__pthread_mutex_s }
%struct.__pthread_mutex_s = type { i32, i32, i32, i32, i32, i16, i16, %struct.__pthread_internal_list }
%struct.__pthread_internal_list = type { ptr, ptr }
%struct.uv__work = type { ptr, ptr, ptr, [2 x ptr] }
%struct.uv_loop_s = type { ptr, i32, [2 x ptr], %union.anon, ptr, i32, i64, i32, [2 x ptr], [2 x ptr], ptr, i32, i32, [2 x ptr], %union.pthread_mutex_t, %struct.uv_async_s, %union.pthread_rwlock_t, ptr, [2 x ptr], [2 x ptr], [2 x ptr], [2 x ptr], [2 x ptr], ptr, %struct.uv__io_s, i32, %struct.anon.1, i64, i64, [2 x i32], %struct.uv__io_s, %struct.uv_signal_s, i32, %struct.uv__io_s, ptr, i32 }
%union.anon = type { ptr }
%struct.uv_async_s = type { ptr, ptr, i32, ptr, [2 x ptr], %union.anon.0, ptr, i32, ptr, [2 x ptr], i32 }
%union.anon.0 = type { [4 x ptr] }
%union.pthread_rwlock_t = type { %struct.__pthread_rwlock_arch_t }
%struct.__pthread_rwlock_arch_t = type { i32, i32, i32, i32, i32, i32, i32, i32, i8, [7 x i8], i64, i32 }
%struct.anon.1 = type { ptr, i32 }
%struct.uv_signal_s = type { ptr, ptr, i32, ptr, [2 x ptr], %union.anon.2, ptr, i32, ptr, i32, %struct.anon.3, i32, i32 }
%union.anon.2 = type { [4 x ptr] }
%struct.anon.3 = type { ptr, ptr, ptr, i32 }
%struct.uv__io_s = type { ptr, [2 x ptr], [2 x ptr], i32, i32, i32 }
%struct.uv_work_s = type { ptr, i32, [6 x ptr], ptr, ptr, ptr, %struct.uv__work }
%struct.uv_req_s = type { ptr, i32, [6 x ptr] }
%struct.uv_fs_s = type { ptr, i32, [6 x ptr], i32, ptr, ptr, i64, ptr, ptr, %struct.uv_stat_t, ptr, i32, i32, i32, i32, ptr, i64, i32, i32, double, double, %struct.uv__work, [4 x %struct.uv_buf_t] }
%struct.uv_stat_t = type { i64, i64, i64, i64, i64, i64, i64, i64, i64, i64, i64, i64, %struct.uv_timespec_t, %struct.uv_timespec_t, %struct.uv_timespec_t, %struct.uv_timespec_t }
%struct.uv_timespec_t = type { i64, i64 }
%struct.uv_buf_t = type { ptr, i64 }
%struct.uv_getaddrinfo_s = type { ptr, i32, [6 x ptr], ptr, %struct.uv__work, ptr, ptr, ptr, ptr, ptr, i32 }
%struct.uv_getnameinfo_s = type { ptr, i32, [6 x ptr], ptr, %struct.uv__work, ptr, %struct.sockaddr_storage, i32, [1025 x i8], [32 x i8], i32 }
%struct.sockaddr_storage = type { i16, [118 x i8], i64 }
%struct.uv_random_s = type { ptr, i32, [6 x ptr], ptr, i32, ptr, i64, ptr, %struct.uv__work }

@mutex = internal global %union.pthread_mutex_t zeroinitializer, align 8

; Function Attrs: nounwind uwtable
define internal i32 @uv__work_cancel(ptr noundef %0, ptr noundef %1, ptr noundef %2) #0 {
  %4 = alloca i32, align 4
  %5 = alloca ptr, align 8
  %6 = alloca ptr, align 8
  %7 = alloca ptr, align 8
  %8 = alloca i32, align 4
  %9 = alloca i32, align 4
  store ptr %0, ptr %5, align 8, !tbaa !14
  store ptr %1, ptr %6, align 8, !tbaa !33
  store ptr %2, ptr %7, align 8, !tbaa !16
  call void @llvm.lifetime.start.p0(i64 4, ptr %8) #7
  call void @uv_mutex_lock(ptr noundef @mutex)
  %10 = load ptr, ptr %7, align 8, !tbaa !16
  %11 = getelementptr inbounds nuw %struct.uv__work, ptr %10, i32 0, i32 2
  %12 = load ptr, ptr %11, align 8, !tbaa !18
  %13 = getelementptr inbounds nuw %struct.uv_loop_s, ptr %12, i32 0, i32 14
  call void @uv_mutex_lock(ptr noundef %13)
  %14 = load ptr, ptr %7, align 8, !tbaa !16
  %15 = getelementptr inbounds nuw %struct.uv__work, ptr %14, i32 0, i32 3
  %16 = load ptr, ptr %7, align 8, !tbaa !16
  %17 = getelementptr inbounds nuw %struct.uv__work, ptr %16, i32 0, i32 3
  %18 = getelementptr inbounds [2 x ptr], ptr %17, i64 0, i64 0
  %19 = load ptr, ptr %18, align 8, !tbaa !13
  %20 = icmp eq ptr %15, %19
  br i1 %20, label %26, label %21

21:                                               ; preds = %3
  %22 = load ptr, ptr %7, align 8, !tbaa !16
  %23 = getelementptr inbounds nuw %struct.uv__work, ptr %22, i32 0, i32 0
  %24 = load ptr, ptr %23, align 8, !tbaa !20
  %25 = icmp ne ptr %24, null
  br label %26

26:                                               ; preds = %21, %3
  %27 = phi i1 [ false, %3 ], [ %25, %21 ]
  %28 = zext i1 %27 to i32
  store i32 %28, ptr %8, align 4, !tbaa !4
  %29 = load i32, ptr %8, align 4, !tbaa !4
  %30 = icmp ne i32 %29, 0
  br i1 %30, label %31, label %53

31:                                               ; preds = %26
  br label %32

32:                                               ; preds = %31
  %33 = load ptr, ptr %7, align 8, !tbaa !16
  %34 = getelementptr inbounds nuw %struct.uv__work, ptr %33, i32 0, i32 3
  %35 = getelementptr inbounds [2 x ptr], ptr %34, i64 0, i64 0
  %36 = load ptr, ptr %35, align 8, !tbaa !13
  %37 = load ptr, ptr %7, align 8, !tbaa !16
  %38 = getelementptr inbounds nuw %struct.uv__work, ptr %37, i32 0, i32 3
  %39 = getelementptr inbounds [2 x ptr], ptr %38, i64 0, i64 1
  %40 = load ptr, ptr %39, align 8, !tbaa !13
  %41 = getelementptr inbounds [2 x ptr], ptr %40, i64 0, i64 0
  store ptr %36, ptr %41, align 8, !tbaa !13
  %42 = load ptr, ptr %7, align 8, !tbaa !16
  %43 = getelementptr inbounds nuw %struct.uv__work, ptr %42, i32 0, i32 3
  %44 = getelementptr inbounds [2 x ptr], ptr %43, i64 0, i64 1
  %45 = load ptr, ptr %44, align 8, !tbaa !13
  %46 = load ptr, ptr %7, align 8, !tbaa !16
  %47 = getelementptr inbounds nuw %struct.uv__work, ptr %46, i32 0, i32 3
  %48 = getelementptr inbounds [2 x ptr], ptr %47, i64 0, i64 0
  %49 = load ptr, ptr %48, align 8, !tbaa !13
  %50 = getelementptr inbounds [2 x ptr], ptr %49, i64 0, i64 1
  store ptr %45, ptr %50, align 8, !tbaa !13
  br label %51

51:                                               ; preds = %32
  br label %52

52:                                               ; preds = %51
  br label %53

53:                                               ; preds = %52, %26
  %54 = load ptr, ptr %7, align 8, !tbaa !16
  %55 = getelementptr inbounds nuw %struct.uv__work, ptr %54, i32 0, i32 2
  %56 = load ptr, ptr %55, align 8, !tbaa !18
  %57 = getelementptr inbounds nuw %struct.uv_loop_s, ptr %56, i32 0, i32 14
  call void @uv_mutex_unlock(ptr noundef %57)
  call void @uv_mutex_unlock(ptr noundef @mutex)
  %58 = load i32, ptr %8, align 4, !tbaa !4
  %59 = icmp ne i32 %58, 0
  br i1 %59, label %61, label %60

60:                                               ; preds = %53
  store i32 -16, ptr %4, align 4
  store i32 1, ptr %9, align 4
  br label %98

61:                                               ; preds = %53
  %62 = load ptr, ptr %7, align 8, !tbaa !16
  %63 = getelementptr inbounds nuw %struct.uv__work, ptr %62, i32 0, i32 0
  store ptr @uv__cancelled, ptr %63, align 8, !tbaa !20
  %64 = load ptr, ptr %5, align 8, !tbaa !14
  %65 = getelementptr inbounds nuw %struct.uv_loop_s, ptr %64, i32 0, i32 14
  call void @uv_mutex_lock(ptr noundef %65)
  br label %66

66:                                               ; preds = %61
  %67 = load ptr, ptr %5, align 8, !tbaa !14
  %68 = getelementptr inbounds nuw %struct.uv_loop_s, ptr %67, i32 0, i32 13
  %69 = load ptr, ptr %7, align 8, !tbaa !16
  %70 = getelementptr inbounds nuw %struct.uv__work, ptr %69, i32 0, i32 3
  %71 = getelementptr inbounds [2 x ptr], ptr %70, i64 0, i64 0
  store ptr %68, ptr %71, align 8, !tbaa !13
  %72 = load ptr, ptr %5, align 8, !tbaa !14
  %73 = getelementptr inbounds nuw %struct.uv_loop_s, ptr %72, i32 0, i32 13
  %74 = getelementptr inbounds [2 x ptr], ptr %73, i64 0, i64 1
  %75 = load ptr, ptr %74, align 8, !tbaa !13
  %76 = load ptr, ptr %7, align 8, !tbaa !16
  %77 = getelementptr inbounds nuw %struct.uv__work, ptr %76, i32 0, i32 3
  %78 = getelementptr inbounds [2 x ptr], ptr %77, i64 0, i64 1
  store ptr %75, ptr %78, align 8, !tbaa !13
  %79 = load ptr, ptr %7, align 8, !tbaa !16
  %80 = getelementptr inbounds nuw %struct.uv__work, ptr %79, i32 0, i32 3
  %81 = load ptr, ptr %7, align 8, !tbaa !16
  %82 = getelementptr inbounds nuw %struct.uv__work, ptr %81, i32 0, i32 3
  %83 = getelementptr inbounds [2 x ptr], ptr %82, i64 0, i64 1
  %84 = load ptr, ptr %83, align 8, !tbaa !13
  %85 = getelementptr inbounds [2 x ptr], ptr %84, i64 0, i64 0
  store ptr %80, ptr %85, align 8, !tbaa !13
  %86 = load ptr, ptr %7, align 8, !tbaa !16
  %87 = getelementptr inbounds nuw %struct.uv__work, ptr %86, i32 0, i32 3
  %88 = load ptr, ptr %5, align 8, !tbaa !14
  %89 = getelementptr inbounds nuw %struct.uv_loop_s, ptr %88, i32 0, i32 13
  %90 = getelementptr inbounds [2 x ptr], ptr %89, i64 0, i64 1
  store ptr %87, ptr %90, align 8, !tbaa !13
  br label %91

91:                                               ; preds = %66
  br label %92

92:                                               ; preds = %91
  %93 = load ptr, ptr %5, align 8, !tbaa !14
  %94 = getelementptr inbounds nuw %struct.uv_loop_s, ptr %93, i32 0, i32 15
  %95 = call i32 @uv_async_send(ptr noundef %94)
  %96 = load ptr, ptr %5, align 8, !tbaa !14
  %97 = getelementptr inbounds nuw %struct.uv_loop_s, ptr %96, i32 0, i32 14
  call void @uv_mutex_unlock(ptr noundef %97)
  store i32 0, ptr %4, align 4
  store i32 1, ptr %9, align 4
  br label %98

98:                                               ; preds = %92, %60
  call void @llvm.lifetime.end.p0(i64 4, ptr %8) #7
  %99 = load i32, ptr %4, align 4
  ret i32 %99
}

; Function Attrs: nounwind uwtable
define dso_local i32 @uv_cancel(ptr noundef %0) #0 {
  %2 = alloca i32, align 4
  %3 = alloca ptr, align 8
  %4 = alloca ptr, align 8
  %5 = alloca ptr, align 8
  %6 = alloca i32, align 4
  store ptr %0, ptr %3, align 8, !tbaa !33
  call void @llvm.lifetime.start.p0(i64 8, ptr %4) #7
  call void @llvm.lifetime.start.p0(i64 8, ptr %5) #7
  %7 = load ptr, ptr %3, align 8, !tbaa !33
  %8 = getelementptr inbounds nuw %struct.uv_req_s, ptr %7, i32 0, i32 1
  %9 = load i32, ptr %8, align 8, !tbaa !35
  switch i32 %9, label %40 [
    i32 6, label %10
    i32 8, label %16
    i32 9, label %22
    i32 10, label %28
    i32 7, label %34
  ]

10:                                               ; preds = %1
  %11 = load ptr, ptr %3, align 8, !tbaa !33
  %12 = getelementptr inbounds nuw %struct.uv_fs_s, ptr %11, i32 0, i32 4
  %13 = load ptr, ptr %12, align 8, !tbaa !37
  store ptr %13, ptr %5, align 8, !tbaa !14
  %14 = load ptr, ptr %3, align 8, !tbaa !33
  %15 = getelementptr inbounds nuw %struct.uv_fs_s, ptr %14, i32 0, i32 21
  store ptr %15, ptr %4, align 8, !tbaa !16
  br label %41

16:                                               ; preds = %1
  %17 = load ptr, ptr %3, align 8, !tbaa !33
  %18 = getelementptr inbounds nuw %struct.uv_getaddrinfo_s, ptr %17, i32 0, i32 3
  %19 = load ptr, ptr %18, align 8, !tbaa !45
  store ptr %19, ptr %5, align 8, !tbaa !14
  %20 = load ptr, ptr %3, align 8, !tbaa !33
  %21 = getelementptr inbounds nuw %struct.uv_getaddrinfo_s, ptr %20, i32 0, i32 4
  store ptr %21, ptr %4, align 8, !tbaa !16
  br label %41

22:                                               ; preds = %1
  %23 = load ptr, ptr %3, align 8, !tbaa !33
  %24 = getelementptr inbounds nuw %struct.uv_getnameinfo_s, ptr %23, i32 0, i32 3
  %25 = load ptr, ptr %24, align 8, !tbaa !48
  store ptr %25, ptr %5, align 8, !tbaa !14
  %26 = load ptr, ptr %3, align 8, !tbaa !33
  %27 = getelementptr inbounds nuw %struct.uv_getnameinfo_s, ptr %26, i32 0, i32 4
  store ptr %27, ptr %4, align 8, !tbaa !16
  br label %41

28:                                               ; preds = %1
  %29 = load ptr, ptr %3, align 8, !tbaa !33
  %30 = getelementptr inbounds nuw %struct.uv_random_s, ptr %29, i32 0, i32 3
  %31 = load ptr, ptr %30, align 8, !tbaa !52
  store ptr %31, ptr %5, align 8, !tbaa !14
  %32 = load ptr, ptr %3, align 8, !tbaa !33
  %33 = getelementptr inbounds nuw %struct.uv_random_s, ptr %32, i32 0, i32 8
  store ptr %33, ptr %4, align 8, !tbaa !16
  br label %41

34:                                               ; preds = %1
  %35 = load ptr, ptr %3, align 8, !tbaa !33
  %36 = getelementptr inbounds nuw %struct.uv_work_s, ptr %35, i32 0, i32 3
  %37 = load ptr, ptr %36, align 8, !tbaa !30
  store ptr %37, ptr %5, align 8, !tbaa !14
  %38 = load ptr, ptr %3, align 8, !tbaa !33
  %39 = getelementptr inbounds nuw %struct.uv_work_s, ptr %38, i32 0, i32 6
  store ptr %39, ptr %4, align 8, !tbaa !16
  br label %41

40:                                               ; preds = %1
  store i32 -22, ptr %2, align 4
  store i32 1, ptr %6, align 4
  br label %46

41:                                               ; preds = %34, %28, %22, %16, %10
  %42 = load ptr, ptr %5, align 8, !tbaa !14
  %43 = load ptr, ptr %3, align 8, !tbaa !33
  %44 = load ptr, ptr %4, align 8, !tbaa !16
  %45 = call i32 @uv__work_cancel(ptr noundef %42, ptr noundef %43, ptr noundef %44)
  store i32 %45, ptr %2, align 4
  store i32 1, ptr %6, align 4
  br label %46

46:                                               ; preds = %41, %40
  call void @llvm.lifetime.end.p0(i64 8, ptr %5) #7
  call void @llvm.lifetime.end.p0(i64 8, ptr %4) #7
  %47 = load i32, ptr %2, align 4
  ret i32 %47
}