; Function Attrs: nounwind uwtable
define dso_local range(i32 -22, 1) i32 @uv_cancel(ptr noundef %0) local_unnamed_addr #0 {
  %2 = getelementptr inbounds nuw i8, ptr %0, i64 8
  %3 = load i32, ptr %2, align 8, !tbaa !28
  %switch.tableidx = add i32 %3, -6
  %4 = icmp ult i32 %switch.tableidx, 5
  br i1 %4, label %switch.lookup, label %33

switch.lookup:                                    ; preds = %1
  %5 = zext nneg i32 %switch.tableidx to i64
  %switch.gep = getelementptr inbounds nuw [5 x i64], ptr @switch.table.uv_cancel, i64 0, i64 %5
  %switch.load = load i64, ptr %switch.gep, align 8
  %6 = zext nneg i32 %switch.tableidx to i64
  %switch.gep17 = getelementptr inbounds nuw [5 x i64], ptr @switch.table.uv_cancel.2, i64 0, i64 %6
  %switch.load18 = load i64, ptr %switch.gep17, align 8
  %7 = getelementptr inbounds nuw i8, ptr %0, i64 %switch.load
  %8 = getelementptr inbounds nuw i8, ptr %0, i64 %switch.load18
  %.0 = load ptr, ptr %7, align 8, !tbaa !30
  tail call void @uv_mutex_lock(ptr noundef nonnull @mutex) #9
  %9 = getelementptr inbounds nuw i8, ptr %8, i64 16
  %10 = load ptr, ptr %9, align 8, !tbaa !14
  %11 = getelementptr inbounds nuw i8, ptr %10, i64 136
  tail call void @uv_mutex_lock(ptr noundef nonnull %11) #9
  %12 = getelementptr inbounds nuw i8, ptr %8, i64 24
  %13 = load ptr, ptr %12, align 8, !tbaa !8
  %14 = icmp eq ptr %12, %13
  br i1 %14, label %.critedge.i, label %15

15:                                               ; preds = %switch.lookup
  %16 = load ptr, ptr %8, align 8, !tbaa !17
  %.not.i = icmp eq ptr %16, null
  br i1 %.not.i, label %.critedge.i, label %17

17:                                               ; preds = %15
  %18 = getelementptr inbounds nuw i8, ptr %8, i64 32
  %19 = load ptr, ptr %18, align 8, !tbaa !8
  store ptr %13, ptr %19, align 8, !tbaa !8
  %20 = load ptr, ptr %18, align 8, !tbaa !8
  %21 = load ptr, ptr %12, align 8, !tbaa !8
  %22 = getelementptr inbounds nuw i8, ptr %21, i64 8
  store ptr %20, ptr %22, align 8, !tbaa !8
  %23 = load ptr, ptr %9, align 8, !tbaa !14
  %24 = getelementptr inbounds nuw i8, ptr %23, i64 136
  tail call void @uv_mutex_unlock(ptr noundef nonnull %24) #9
  tail call void @uv_mutex_unlock(ptr noundef nonnull @mutex) #9
  store ptr @uv__cancelled, ptr %8, align 8, !tbaa !17
  %25 = getelementptr inbounds nuw i8, ptr %.0, i64 136
  tail call void @uv_mutex_lock(ptr noundef nonnull %25) #9
  %26 = getelementptr inbounds nuw i8, ptr %.0, i64 120
  store ptr %26, ptr %12, align 8, !tbaa !8
  %27 = getelementptr inbounds nuw i8, ptr %.0, i64 128
  %28 = load ptr, ptr %27, align 8, !tbaa !8
  store ptr %28, ptr %18, align 8, !tbaa !8
  store ptr %12, ptr %28, align 8, !tbaa !8
  store ptr %12, ptr %27, align 8, !tbaa !8
  %29 = getelementptr inbounds nuw i8, ptr %.0, i64 176
  %30 = tail call i32 @uv_async_send(ptr noundef nonnull %29) #9
  br label %uv__work_cancel.exit

.critedge.i:                                      ; preds = %15, %switch.lookup
  %31 = load ptr, ptr %9, align 8, !tbaa !14
  %32 = getelementptr inbounds nuw i8, ptr %31, i64 136
  tail call void @uv_mutex_unlock(ptr noundef nonnull %32) #9
  br label %uv__work_cancel.exit

uv__work_cancel.exit:                             ; preds = %17, %.critedge.i
  %mutex.sink.i = phi ptr [ @mutex, %.critedge.i ], [ %25, %17 ]
  %.0.i = phi i32 [ -16, %.critedge.i ], [ 0, %17 ]
  tail call void @uv_mutex_unlock(ptr noundef nonnull %mutex.sink.i) #9
  br label %33

33:                                               ; preds = %1, %uv__work_cancel.exit
  %.015 = phi i32 [ %.0.i, %uv__work_cancel.exit ], [ -22, %1 ]
  ret i32 %.015
}